target datalayout = "e-m:e-p270:32:32-p271:32:32-p272:64:64-i64:64-i128:128-f80:128-n8:16:32:64-S128"
target triple = "x86_64-pc-linux-gnu"

%struct.Ivy_Man_t_ = type { ptr, ptr, ptr, ptr, ptr, %struct.Ivy_Obj_t_, [8 x i32], i32, i32, ptr, i32, i32, i32, i32, ptr, i32, ptr, ptr, ptr, i32, ptr, ptr, ptr, i64, i64 }
%struct.Ivy_Obj_t_ = type { i32, i32, i32, i32, ptr, ptr, ptr, ptr, ptr, ptr, ptr, ptr }
%struct.Vec_Ptr_t_ = type { i32, i32, ptr }
%struct.Vec_Int_t_ = type { i32, i32, ptr }

; Function Attrs: nounwind uwtable
define internal ptr @Vec_IntArray(ptr noundef %0) #0 {
  %2 = alloca ptr, align 8
  store ptr %0, ptr %2, align 8
  %3 = load ptr, ptr %2, align 8
  %4 = getelementptr inbounds %struct.Vec_Int_t_, ptr %3, i32 0, i32 2
  %5 = load ptr, ptr %4, align 8
  ret ptr %5
}

; Function Attrs: nounwind uwtable
define internal ptr @Vec_PtrEntry(ptr noundef %0, i32 noundef %1) #0 {
  %3 = alloca ptr, align 8
  %4 = alloca i32, align 4
  store ptr %0, ptr %3, align 8
  store i32 %1, ptr %4, align 4
  %5 = load ptr, ptr %3, align 8
  %6 = getelementptr inbounds %struct.Vec_Ptr_t_, ptr %5, i32 0, i32 2
  %7 = load ptr, ptr %6, align 8
  %8 = load i32, ptr %4, align 4
  %9 = sext i32 %8 to i64
  %10 = getelementptr inbounds ptr, ptr %7, i64 %9
  %11 = load ptr, ptr %10, align 8
  ret ptr %11
}

; Function Attrs: nounwind uwtable
define ptr @Ivy_ObjGetTruthStore(i32 noundef %0, ptr noundef %1) #0 {
  %3 = alloca i32, align 4
  %4 = alloca ptr, align 8
  store i32 %0, ptr %3, align 4
  store ptr %1, ptr %4, align 8
  %5 = load ptr, ptr %4, align 8
  %6 = call ptr @Vec_IntArray(ptr noundef %5)
  %7 = load i32, ptr %3, align 4
  %8 = mul nsw i32 8, %7
  %9 = sext i32 %8 to i64
  %10 = getelementptr inbounds i32, ptr %6, i64 %9
  ret ptr %10
}

; Function Attrs: nounwind uwtable
define internal void @Vec_IntGrow(ptr noundef %0, i32 noundef %1) #0 {
  %3 = alloca ptr, align 8
  %4 = alloca i32, align 4
  store ptr %0, ptr %3, align 8
  store i32 %1, ptr %4, align 4
  %5 = load ptr, ptr %3, align 8
  %6 = getelementptr inbounds %struct.Vec_Int_t_, ptr %5, i32 0, i32 0
  %7 = load i32, ptr %6, align 8
  %8 = load i32, ptr %4, align 4
  %9 = icmp sge i32 %7, %8
  br i1 %9, label %10, label %11

10:                                               ; preds = %2
  br label %36

11:                                               ; preds = %2
  %12 = load ptr, ptr %3, align 8
  %13 = getelementptr inbounds %struct.Vec_Int_t_, ptr %12, i32 0, i32 2
  %14 = load ptr, ptr %13, align 8
  %15 = icmp ne ptr %14, null
  br i1 %15, label %16, label %24

16:                                               ; preds = %11
  %17 = load ptr, ptr %3, align 8
  %18 = getelementptr inbounds %struct.Vec_Int_t_, ptr %17, i32 0, i32 2
  %19 = load ptr, ptr %18, align 8
  %20 = load i32, ptr %4, align 4
  %21 = sext i32 %20 to i64
  %22 = mul i64 4, %21
  %23 = call ptr @realloc(ptr noundef %19, i64 noundef %22) #6
  br label %29

24:                                               ; preds = %11
  %25 = load i32, ptr %4, align 4
  %26 = sext i32 %25 to i64
  %27 = mul i64 4, %26
  %28 = call noalias ptr @malloc(i64 noundef %27) #7
  br label %29

29:                                               ; preds = %24, %16
  %30 = phi ptr [ %23, %16 ], [ %28, %24 ]
  %31 = load ptr, ptr %3, align 8
  %32 = getelementptr inbounds %struct.Vec_Int_t_, ptr %31, i32 0, i32 2
  store ptr %30, ptr %32, align 8
  %33 = load i32, ptr %4, align 4
  %34 = load ptr, ptr %3, align 8
  %35 = getelementptr inbounds %struct.Vec_Int_t_, ptr %34, i32 0, i32 0
  store i32 %33, ptr %35, align 8
  br label %36

36:                                               ; preds = %29, %10
  ret void
}

; Function Attrs: nounwind uwtable
define internal void @Vec_IntClear(ptr noundef %0) #0 {
  %2 = alloca ptr, align 8
  store ptr %0, ptr %2, align 8
  %3 = load ptr, ptr %2, align 8
  %4 = getelementptr inbounds %struct.Vec_Int_t_, ptr %3, i32 0, i32 1
  store i32 0, ptr %4, align 4
  ret void
}

; Function Attrs: nounwind uwtable
define internal ptr @Ivy_ManObj(ptr noundef %0, i32 noundef %1) #0 {
  %3 = alloca ptr, align 8
  %4 = alloca i32, align 4
  store ptr %0, ptr %3, align 8
  store i32 %1, ptr %4, align 4
  %5 = load ptr, ptr %3, align 8
  %6 = getelementptr inbounds %struct.Ivy_Man_t_, ptr %5, i32 0, i32 3
  %7 = load ptr, ptr %6, align 8
  %8 = load i32, ptr %4, align 4
  %9 = call ptr @Vec_PtrEntry(ptr noundef %7, i32 noundef %8)
  ret ptr %9
}

; Function Attrs: nounwind uwtable
define internal i32 @Vec_IntEntry(ptr noundef %0, i32 noundef %1) #0 {
  %3 = alloca ptr, align 8
  %4 = alloca i32, align 4
  store ptr %0, ptr %3, align 8
  store i32 %1, ptr %4, align 4
  %5 = load ptr, ptr %3, align 8
  %6 = getelementptr inbounds %struct.Vec_Int_t_, ptr %5, i32 0, i32 2
  %7 = load ptr, ptr %6, align 8
  %8 = load i32, ptr %4, align 4
  %9 = sext i32 %8 to i64
  %10 = getelementptr inbounds i32, ptr %7, i64 %9
  %11 = load i32, ptr %10, align 4
  ret i32 %11
}

; Function Attrs: nounwind uwtable
define internal i32 @Vec_IntSize(ptr noundef %0) #0 {
  %2 = alloca ptr, align 8
  store ptr %0, ptr %2, align 8
  %3 = load ptr, ptr %2, align 8
  %4 = getelementptr inbounds %struct.Vec_Int_t_, ptr %3, i32 0, i32 1
  %5 = load i32, ptr %4, align 4
  ret i32 %5
}

; Function Attrs: nounwind uwtable
define ptr @Ivy_ManCutTruth(ptr noundef %0, ptr noundef %1, ptr noundef %2, ptr noundef %3, ptr noundef %4) #0 {
  %6 = alloca ptr, align 8
  %7 = alloca ptr, align 8
  %8 = alloca ptr, align 8
  %9 = alloca ptr, align 8
  %10 = alloca ptr, align 8
  %11 = alloca i32, align 4
  %12 = alloca i32, align 4
  store ptr %0, ptr %6, align 8
  store ptr %1, ptr %7, align 8
  store ptr %2, ptr %8, align 8
  store ptr %3, ptr %9, align 8
  store ptr %4, ptr %10, align 8
  %13 = load ptr, ptr %6, align 8
  %14 = load ptr, ptr %7, align 8
  %15 = load ptr, ptr %8, align 8
  %16 = load ptr, ptr %9, align 8
  call void @Ivy_ManCollectCut(ptr noundef %13, ptr noundef %14, ptr noundef %15, ptr noundef %16)
  store i32 0, ptr %11, align 4
  br label %17

17:                                               ; preds = %34, %5
  %18 = load i32, ptr %11, align 4
  %19 = load ptr, ptr %9, align 8
  %20 = call i32 @Vec_IntSize(ptr noundef %19)
  %21 = icmp slt i32 %18, %20
  br i1 %21, label %22, label %26

22:                                               ; preds = %17
  %23 = load ptr, ptr %9, align 8
  %24 = load i32, ptr %11, align 4
  %25 = call i32 @Vec_IntEntry(ptr noundef %23, i32 noundef %24)
  store i32 %25, ptr %12, align 4
  br label %26

26:                                               ; preds = %22, %17
  %27 = phi i1 [ false, %17 ], [ true, %22 ]
  br i1 %27, label %28, label %37

28:                                               ; preds = %26
  %29 = load i32, ptr %11, align 4
  %30 = load ptr, ptr %6, align 8
  %31 = load i32, ptr %12, align 4
  %32 = call ptr @Ivy_ManObj(ptr noundef %30, i32 noundef %31)
  %33 = getelementptr inbounds %struct.Ivy_Obj_t_, ptr %32, i32 0, i32 1
  store i32 %29, ptr %33, align 4
  br label %34

34:                                               ; preds = %28
  %35 = load i32, ptr %11, align 4
  %36 = add nsw i32 %35, 1
  store i32 %36, ptr %11, align 4
  br label %17, !llvm.loop !13

37:                                               ; preds = %26
  %38 = load ptr, ptr %10, align 8
  call void @Vec_IntClear(ptr noundef %38)
  %39 = load ptr, ptr %10, align 8
  %40 = load ptr, ptr %9, align 8
  %41 = call i32 @Vec_IntSize(ptr noundef %40)
  %42 = mul nsw i32 8, %41
  call void @Vec_IntGrow(ptr noundef %39, i32 noundef %42)
  store i32 0, ptr %11, align 4
  br label %43

43:                                               ; preds = %62, %37
  %44 = load i32, ptr %11, align 4
  %45 = load ptr, ptr %8, align 8
  %46 = call i32 @Vec_IntSize(ptr noundef %45)
  %47 = icmp slt i32 %44, %46
  br i1 %47, label %48, label %52

48:                                               ; preds = %43
  %49 = load ptr, ptr %8, align 8
  %50 = load i32, ptr %11, align 4
  %51 = call i32 @Vec_IntEntry(ptr noundef %49, i32 noundef %50)
  store i32 %51, ptr %12, align 4
  br label %52

52:                                               ; preds = %48, %43
  %53 = phi i1 [ false, %43 ], [ true, %48 ]
  br i1 %53, label %54, label %65

54:                                               ; preds = %52
  %55 = load i32, ptr %11, align 4
  %56 = load ptr, ptr %10, align 8
  %57 = call ptr @Ivy_ObjGetTruthStore(i32 noundef %55, ptr noundef %56)
  %58 = load i32, ptr %11, align 4
  %59 = sext i32 %58 to i64
  %60 = getelementptr inbounds [8 x [8 x i32]], ptr @Ivy_ManCutTruth.uTruths, i64 0, i64 %59
  %61 = getelementptr inbounds [8 x i32], ptr %60, i64 0, i64 0
  call void @llvm.memcpy.p0.p0.i64(ptr align 4 %57, ptr align 16 %61, i64 32, i1 false)
  br label %62

62:                                               ; preds = %54
  %63 = load i32, ptr %11, align 4
  %64 = add nsw i32 %63, 1
  store i32 %64, ptr %11, align 4
  br label %43, !llvm.loop !14

65:                                               ; preds = %52
  %66 = load ptr, ptr %8, align 8
  %67 = call i32 @Vec_IntSize(ptr noundef %66)
  store i32 %67, ptr %11, align 4
  br label %68

68:                                               ; preds = %85, %65
  %69 = load i32, ptr %11, align 4
  %70 = load ptr, ptr %9, align 8
  %71 = call i32 @Vec_IntSize(ptr noundef %70)
  %72 = icmp slt i32 %69, %71
  br i1 %72, label %73, label %77

73:                                               ; preds = %68
  %74 = load ptr, ptr %9, align 8
  %75 = load i32, ptr %11, align 4
  %76 = call i32 @Vec_IntEntry(ptr noundef %74, i32 noundef %75)
  store i32 %76, ptr %12, align 4
  br label %77

77:                                               ; preds = %73, %68
  %78 = phi i1 [ false, %68 ], [ true, %73 ]
  br i1 %78, label %79, label %88

79:                                               ; preds = %77
  %80 = load ptr, ptr %6, align 8
  %81 = load ptr, ptr %6, align 8
  %82 = load i32, ptr %12, align 4
  %83 = call ptr @Ivy_ManObj(ptr noundef %81, i32 noundef %82)
  %84 = load ptr, ptr %10, align 8
  call void @Ivy_ManCutTruthOne(ptr noundef %80, ptr noundef %83, ptr noundef %84, i32 noundef 8)
  br label %85

85:                                               ; preds = %79
  %86 = load i32, ptr %11, align 4
  %87 = add nsw i32 %86, 1
  store i32 %87, ptr %11, align 4
  br label %68, !llvm.loop !15

88:                                               ; preds = %77
  %89 = load ptr, ptr %7, align 8
  %90 = getelementptr inbounds %struct.Ivy_Obj_t_, ptr %89, i32 0, i32 1
  %91 = load i32, ptr %90, align 4
  %92 = load ptr, ptr %10, align 8
  %93 = call ptr @Ivy_ObjGetTruthStore(i32 noundef %91, ptr noundef %92)
  ret ptr %93
}