; Function Attrs: nounwind uwtable
define ptr @Ivy_ManCutTruth(ptr noundef %0, ptr noundef captures(none) %1, ptr noundef readonly captures(none) %2, ptr noundef initializes((4, 8)) %3, ptr noundef captures(none) %4) local_unnamed_addr #1 {
  tail call void @Ivy_ManCollectCut(ptr noundef %0, ptr noundef %1, ptr noundef %2, ptr noundef %3)
  %6 = getelementptr i8, ptr %3, i64 4
  %.val4148 = load i32, ptr %6, align 4
  %7 = icmp sgt i32 %.val4148, 0
  br i1 %7, label %.lr.ph, label %.critedge

.lr.ph:                                           ; preds = %5
  %8 = getelementptr i8, ptr %3, i64 8
  %9 = getelementptr i8, ptr %0, i64 24
  br label %10

10:                                               ; preds = %.lr.ph, %10
  %indvars.iv = phi i64 [ 0, %.lr.ph ], [ %indvars.iv.next, %10 ]
  %.val44 = load ptr, ptr %8, align 8
  %11 = getelementptr inbounds nuw i32, ptr %.val44, i64 %indvars.iv
  %12 = load i32, ptr %11, align 4
  %.val46 = load ptr, ptr %9, align 8
  %13 = getelementptr i8, ptr %.val46, i64 8
  %.val46.val = load ptr, ptr %13, align 8
  %14 = sext i32 %12 to i64
  %15 = getelementptr inbounds ptr, ptr %.val46.val, i64 %14
  %16 = load ptr, ptr %15, align 8
  %17 = getelementptr inbounds nuw i8, ptr %16, i64 4
  %18 = trunc nuw nsw i64 %indvars.iv to i32
  store i32 %18, ptr %17, align 4
  %indvars.iv.next = add nuw nsw i64 %indvars.iv, 1
  %.val41 = load i32, ptr %6, align 4
  %19 = sext i32 %.val41 to i64
  %20 = icmp slt i64 %indvars.iv.next, %19
  br i1 %20, label %10, label %.critedge, !llvm.loop !13

.critedge:                                        ; preds = %10, %5
  %21 = getelementptr inbounds nuw i8, ptr %4, i64 4
  store i32 0, ptr %21, align 4
  %.val40 = load i32, ptr %6, align 4
  %22 = shl nsw i32 %.val40, 3
  %23 = load i32, ptr %4, align 8
  %.not.i = icmp slt i32 %23, %22
  br i1 %.not.i, label %24, label %Vec_IntGrow.exit

24:                                               ; preds = %.critedge
  %25 = getelementptr inbounds nuw i8, ptr %4, i64 8
  %26 = load ptr, ptr %25, align 8
  %.not9.i = icmp eq ptr %26, null
  %27 = sext i32 %22 to i64
  %28 = shl nsw i64 %27, 2
  br i1 %.not9.i, label %31, label %29

29:                                               ; preds = %24
  %30 = tail call ptr @realloc(ptr noundef nonnull %26, i64 noundef %28) #17
  br label %33

31:                                               ; preds = %24
  %32 = tail call noalias ptr @malloc(i64 noundef %28) #18
  br label %33

33:                                               ; preds = %31, %29
  %34 = phi ptr [ %30, %29 ], [ %32, %31 ]
  store ptr %34, ptr %25, align 8
  store i32 %22, ptr %4, align 8
  br label %Vec_IntGrow.exit

Vec_IntGrow.exit:                                 ; preds = %.critedge, %33
  %35 = getelementptr i8, ptr %2, i64 4
  %.val3950 = load i32, ptr %35, align 4
  %36 = icmp sgt i32 %.val3950, 0
  br i1 %36, label %.lr.ph52, label %.critedge2.preheader

.lr.ph52:                                         ; preds = %Vec_IntGrow.exit
  %37 = getelementptr i8, ptr %4, i64 8
  br label %42

.critedge2.preheader:                             ; preds = %42, %Vec_IntGrow.exit
  %.val39.lcssa = phi i32 [ %.val3950, %Vec_IntGrow.exit ], [ %.val39, %42 ]
  %.val53 = load i32, ptr %6, align 4
  %38 = icmp slt i32 %.val39.lcssa, %.val53
  br i1 %38, label %.lr.ph55, label %.critedge4

.lr.ph55:                                         ; preds = %.critedge2.preheader
  %39 = getelementptr i8, ptr %3, i64 8
  %40 = getelementptr i8, ptr %0, i64 24
  %41 = sext i32 %.val39.lcssa to i64
  br label %.critedge2

42:                                               ; preds = %.lr.ph52, %42
  %indvars.iv58 = phi i64 [ 0, %.lr.ph52 ], [ %indvars.iv.next59, %42 ]
  %.val.i = load ptr, ptr %37, align 8
  %.idx = shl nsw i64 %indvars.iv58, 5
  %43 = getelementptr inbounds nuw i8, ptr %.val.i, i64 %.idx
  %44 = getelementptr inbounds nuw [8 x [8 x i32]], ptr @Ivy_ManCutTruth.uTruths, i64 0, i64 %indvars.iv58
  tail call void @llvm.memcpy.p0.p0.i64(ptr noundef nonnull align 4 dereferenceable(32) %43, ptr noundef nonnull align 16 dereferenceable(32) %44, i64 32, i1 false)
  %indvars.iv.next59 = add nuw nsw i64 %indvars.iv58, 1
  %.val39 = load i32, ptr %35, align 4
  %45 = sext i32 %.val39 to i64
  %46 = icmp slt i64 %indvars.iv.next59, %45
  br i1 %46, label %42, label %.critedge2.preheader, !llvm.loop !14

.critedge2:                                       ; preds = %.lr.ph55, %.critedge2
  %indvars.iv61 = phi i64 [ %41, %.lr.ph55 ], [ %indvars.iv.next62, %.critedge2 ]
  %.val42 = load ptr, ptr %39, align 8
  %47 = getelementptr inbounds i32, ptr %.val42, i64 %indvars.iv61
  %48 = load i32, ptr %47, align 4
  %.val45 = load ptr, ptr %40, align 8
  %49 = getelementptr i8, ptr %.val45, i64 8
  %.val45.val = load ptr, ptr %49, align 8
  %50 = sext i32 %48 to i64
  %51 = getelementptr inbounds ptr, ptr %.val45.val, i64 %50
  %52 = load ptr, ptr %51, align 8
  tail call void @Ivy_ManCutTruthOne(ptr poison, ptr noundef %52, ptr noundef nonnull %4, i32 noundef 8)
  %indvars.iv.next62 = add nsw i64 %indvars.iv61, 1
  %.val = load i32, ptr %6, align 4
  %53 = sext i32 %.val to i64
  %54 = icmp slt i64 %indvars.iv.next62, %53
  br i1 %54, label %.critedge2, label %.critedge4, !llvm.loop !15

.critedge4:                                       ; preds = %.critedge2, %.critedge2.preheader
  %55 = getelementptr inbounds nuw i8, ptr %1, i64 4
  %56 = load i32, ptr %55, align 4
  %57 = getelementptr i8, ptr %4, i64 8
  %.val.i47 = load ptr, ptr %57, align 8
  %58 = shl nsw i32 %56, 3
  %59 = sext i32 %58 to i64
  %60 = getelementptr inbounds i32, ptr %.val.i47, i64 %59
  ret ptr %60
}